(dp1
(F0
F10
tp2
(lp3
cdjango.db.models.base
model_unpickle
p4
(cgeocamLayer.models
BaseFeature
p5
(lcdjango.db.models.base
simple_class_factory
p6
tRp7
(dp8
S'_state'
p9
ccopy_reg
_reconstructor
p10
(cdjango.db.models.base
ModelState
p11
c__builtin__
object
p12
NtRp13
(dp14
S'adding'
p15
I00
sS'db'
p16
S'default'
p17
sbsS'id'
p18
I1
sbag4
(g5
(lg6
tRp19
(dp20
g9
g10
(g11
g12
NtRp21
(dp22
g15
I00
sg16
g17
sbsg18
I2
sbag4
(g5
(lg6
tRp23
(dp24
g9
g10
(g11
g12
NtRp25
(dp26
g15
I00
sg16
g17
sbsg18
I3
sbag4
(g5
(lg6
tRp27
(dp28
g9
g10
(g11
g12
NtRp29
(dp30
g15
I00
sg16
g17
sbsg18
I4
sbag4
(g5
(lg6
tRp31
(dp32
g9
g10
(g11
g12
NtRp33
(dp34
g15
I00
sg16
g17
sbsg18
I5
sbag4
(g5
(lg6
tRp35
(dp36
g9
g10
(g11
g12
NtRp37
(dp38
g15
I00
sg16
g17
sbsg18
I6
sbag4
(g5
(lg6
tRp39
(dp40
g9
g10
(g11
g12
NtRp41
(dp42
g15
I00
sg16
g17
sbsg18
I7
sbag4
(g5
(lg6
tRp43
(dp44
g9
g10
(g11
g12
NtRp45
(dp46
g15
I00
sg16
g17
sbsg18
I8
sbag4
(g5
(lg6
tRp47
(dp48
g9
g10
(g11
g12
NtRp49
(dp50
g15
I00
sg16
g17
sbsg18
I9
sbag4
(g5
(lg6
tRp51
(dp52
g9
g10
(g11
g12
NtRp53
(dp54
g15
I00
sg16
g17
sbsg18
I10
sbag4
(g5
(lg6
tRp55
(dp56
g9
g10
(g11
g12
NtRp57
(dp58
g15
I00
sg16
g17
sbsg18
I11
sbag4
(g5
(lg6
tRp59
(dp60
g9
g10
(g11
g12
NtRp61
(dp62
g15
I00
sg16
g17
sbsg18
I12
sbag4
(g5
(lg6
tRp63
(dp64
g9
g10
(g11
g12
NtRp65
(dp66
g15
I00
sg16
g17
sbsg18
I13
sbag4
(g5
(lg6
tRp67
(dp68
g9
g10
(g11
g12
NtRp69
(dp70
g15
I00
sg16
g17
sbsg18
I14
sbag4
(g5
(lg6
tRp71
(dp72
g9
g10
(g11
g12
NtRp73
(dp74
g15
I00
sg16
g17
sbsg18
I15
sbag4
(g5
(lg6
tRp75
(dp76
g9
g10
(g11
g12
NtRp77
(dp78
g15
I00
sg16
g17
sbsg18
I16
sbag4
(g5
(lg6
tRp79
(dp80
g9
g10
(g11
g12
NtRp81
(dp82
g15
I00
sg16
g17
sbsg18
I17
sbag4
(g5
(lg6
tRp83
(dp84
g9
g10
(g11
g12
NtRp85
(dp86
g15
I00
sg16
g17
sbsg18
I18
sbag4
(g5
(lg6
tRp87
(dp88
g9
g10
(g11
g12
NtRp89
(dp90
g15
I00
sg16
g17
sbsg18
I19
sbag4
(g5
(lg6
tRp91
(dp92
g9
g10
(g11
g12
NtRp93
(dp94
g15
I00
sg16
g17
sbsg18
I20
sbag4
(g5
(lg6
tRp95
(dp96
g9
g10
(g11
g12
NtRp97
(dp98
g15
I00
sg16
S'default'
p99
sbsg18
I1
sbag4
(g5
(lg6
tRp100
(dp101
g9
g10
(g11
g12
NtRp102
(dp103
g15
I00
sg16
g99
sbsg18
I2
sbag4
(g5
(lg6
tRp104
(dp105
g9
g10
(g11
g12
NtRp106
(dp107
g15
I00
sg16
g99
sbsg18
I3
sbag4
(g5
(lg6
tRp108
(dp109
g9
g10
(g11
g12
NtRp110
(dp111
g15
I00
sg16
g99
sbsg18
I4
sbag4
(g5
(lg6
tRp112
(dp113
g9
g10
(g11
g12
NtRp114
(dp115
g15
I00
sg16
g99
sbsg18
I5
sbag4
(g5
(lg6
tRp116
(dp117
g9
g10
(g11
g12
NtRp118
(dp119
g15
I00
sg16
g99
sbsg18
I6
sbag4
(g5
(lg6
tRp120
(dp121
g9
g10
(g11
g12
NtRp122
(dp123
g15
I00
sg16
g99
sbsg18
I7
sbag4
(g5
(lg6
tRp124
(dp125
g9
g10
(g11
g12
NtRp126
(dp127
g15
I00
sg16
g99
sbsg18
I8
sbag4
(g5
(lg6
tRp128
(dp129
g9
g10
(g11
g12
NtRp130
(dp131
g15
I00
sg16
g99
sbsg18
I9
sbag4
(g5
(lg6
tRp132
(dp133
g9
g10
(g11
g12
NtRp134
(dp135
g15
I00
sg16
g99
sbsg18
I10
sbag4
(g5
(lg6
tRp136
(dp137
g9
g10
(g11
g12
NtRp138
(dp139
g15
I00
sg16
g99
sbsg18
I11
sbag4
(g5
(lg6
tRp140
(dp141
g9
g10
(g11
g12
NtRp142
(dp143
g15
I00
sg16
g99
sbsg18
I12
sbag4
(g5
(lg6
tRp144
(dp145
g9
g10
(g11
g12
NtRp146
(dp147
g15
I00
sg16
g99
sbsg18
I13
sbag4
(g5
(lg6
tRp148
(dp149
g9
g10
(g11
g12
NtRp150
(dp151
g15
I00
sg16
g99
sbsg18
I14
sbag4
(g5
(lg6
tRp152
(dp153
g9
g10
(g11
g12
NtRp154
(dp155
g15
I00
sg16
g99
sbsg18
I15
sbag4
(g5
(lg6
tRp156
(dp157
g9
g10
(g11
g12
NtRp158
(dp159
g15
I00
sg16
g99
sbsg18
I16
sbag4
(g5
(lg6
tRp160
(dp161
g9
g10
(g11
g12
NtRp162
(dp163
g15
I00
sg16
g99
sbsg18
I17
sbag4
(g5
(lg6
tRp164
(dp165
g9
g10
(g11
g12
NtRp166
(dp167
g15
I00
sg16
g99
sbsg18
I18
sbag4
(g5
(lg6
tRp168
(dp169
g9
g10
(g11
g12
NtRp170
(dp171
g15
I00
sg16
g99
sbsg18
I19
sbag4
(g5
(lg6
tRp172
(dp173
g9
g10
(g11
g12
NtRp174
(dp175
g15
I00
sg16
g99
sbsg18
I20
sbag4
(g5
(lg6
tRp176
(dp177
g9
g10
(g11
g12
NtRp178
(dp179
g15
I00
sg16
g99
sbsg18
I21
sbag4
(g5
(lg6
tRp180
(dp181
g9
g10
(g11
g12
NtRp182
(dp183
g15
I00
sg16
g99
sbsg18
I22
sbag4
(g5
(lg6
tRp184
(dp185
g9
g10
(g11
g12
NtRp186
(dp187
g15
I00
sg16
g99
sbsg18
I23
sbag4
(g5
(lg6
tRp188
(dp189
g9
g10
(g11
g12
NtRp190
(dp191
g15
I00
sg16
g99
sbsg18
I24
sbag4
(g5
(lg6
tRp192
(dp193
g9
g10
(g11
g12
NtRp194
(dp195
g15
I00
sg16
g99
sbsg18
I25
sbag4
(g5
(lg6
tRp196
(dp197
g9
g10
(g11
g12
NtRp198
(dp199
g15
I00
sg16
g99
sbsg18
I26
sbag4
(g5
(lg6
tRp200
(dp201
g9
g10
(g11
g12
NtRp202
(dp203
g15
I00
sg16
g99
sbsg18
I27
sbag4
(g5
(lg6
tRp204
(dp205
g9
g10
(g11
g12
NtRp206
(dp207
g15
I00
sg16
g99
sbsg18
I28
sbag4
(g5
(lg6
tRp208
(dp209
g9
g10
(g11
g12
NtRp210
(dp211
g15
I00
sg16
g99
sbsg18
I29
sbag4
(g5
(lg6
tRp212
(dp213
g9
g10
(g11
g12
NtRp214
(dp215
g15
I00
sg16
g99
sbsg18
I30
sbas.